target datalayout = "e-m:e-p270:32:32-p271:32:32-p272:64:64-i64:64-i128:128-f80:128-n8:16:32:64-S128"
target triple = "x86_64-pc-linux-gnu"

%struct.StratumTableRecord = type { ptr, i32, i32 }

@stratumIndex = internal global i32 0, align 4
@stratumTable = internal global ptr null, align 8
@defaultStratumId = internal global ptr null, align 8
@defaultStratumIndex = internal global i32 0, align 4

; Function Attrs: nounwind uwtable
define internal i32 @defaultStratumTableIndex() #0 {
  %1 = load i32, ptr @defaultStratumIndex, align 4
  %2 = icmp eq i32 %1, -1
  br i1 %2, label %3, label %9

3:                                                ; preds = %0
  %4 = load ptr, ptr @defaultStratumId, align 8
  %5 = icmp ne ptr %4, null
  br i1 %5, label %6, label %9

6:                                                ; preds = %3
  %7 = load ptr, ptr @defaultStratumId, align 8
  %8 = call i32 @stratumTableIndex(ptr noundef %7)
  store i32 %8, ptr @defaultStratumIndex, align 4
  br label %9

9:                                                ; preds = %6, %3, %0
  %10 = load i32, ptr @defaultStratumIndex, align 4
  ret i32 %10
}

; Function Attrs: nounwind uwtable
define internal i32 @stratumTableIndex(ptr noundef %0) #0 {
  %2 = alloca i32, align 4
  %3 = alloca ptr, align 8
  %4 = alloca i32, align 4
  store ptr %0, ptr %3, align 8
  %5 = load ptr, ptr %3, align 8
  %6 = icmp eq ptr %5, null
  br i1 %6, label %7, label %9

7:                                                ; preds = %1
  %8 = call i32 @defaultStratumTableIndex()
  store i32 %8, ptr %2, align 4
  br label %33

9:                                                ; preds = %1
  store i32 0, ptr %4, align 4
  br label %10

10:                                               ; preds = %28, %9
  %11 = load i32, ptr %4, align 4
  %12 = load i32, ptr @stratumIndex, align 4
  %13 = sub nsw i32 %12, 1
  %14 = icmp slt i32 %11, %13
  br i1 %14, label %15, label %31

15:                                               ; preds = %10
  %16 = load ptr, ptr @stratumTable, align 8
  %17 = load i32, ptr %4, align 4
  %18 = sext i32 %17 to i64
  %19 = getelementptr inbounds %struct.StratumTableRecord, ptr %16, i64 %18
  %20 = getelementptr inbounds %struct.StratumTableRecord, ptr %19, i32 0, i32 0
  %21 = load ptr, ptr %20, align 8
  %22 = load ptr, ptr %3, align 8
  %23 = call i32 @strcmp(ptr noundef %21, ptr noundef %22) #8
  %24 = icmp eq i32 %23, 0
  br i1 %24, label %25, label %27

25:                                               ; preds = %15
  %26 = load i32, ptr %4, align 4
  store i32 %26, ptr %2, align 4
  br label %33

27:                                               ; preds = %15
  br label %28

28:                                               ; preds = %27
  %29 = load i32, ptr %4, align 4
  %30 = add nsw i32 %29, 1
  store i32 %30, ptr %4, align 4
  br label %10, !llvm.loop !10

31:                                               ; preds = %10
  %32 = call i32 @defaultStratumTableIndex()
  store i32 %32, ptr %2, align 4
  br label %33

33:                                               ; preds = %31, %25, %7
  %34 = load i32, ptr %2, align 4
  ret i32 %34
}