; Function Attrs: nofree nounwind memory(readwrite, argmem: read, inaccessiblemem: none) uwtable
define internal fastcc i32 @stratumTableIndex(ptr noundef readonly %0) unnamed_addr #1 {
  %2 = icmp eq ptr %0, null
  br i1 %2, label %7, label %.preheader

.preheader:                                       ; preds = %1
  %3 = load i32, ptr @stratumIndex, align 4
  %4 = icmp sgt i32 %3, 1
  br i1 %4, label %.lr.ph, label %._crit_edge

.lr.ph:                                           ; preds = %.preheader
  %5 = add nsw i32 %3, -1
  %6 = load ptr, ptr @stratumTable, align 8
  %wide.trip.count = zext nneg i32 %5 to i64
  br label %14

7:                                                ; preds = %1
  %8 = load i32, ptr @defaultStratumIndex, align 4
  %9 = icmp eq i32 %8, -1
  %10 = load ptr, ptr @defaultStratumId, align 8
  %11 = icmp ne ptr %10, null
  %or.cond.i = select i1 %9, i1 %11, i1 false
  br i1 %or.cond.i, label %12, label %common.ret

common.ret:                                       ; preds = %.loopexit.loopexit, %7, %._crit_edge, %24, %12
  %common.ret.op = phi i32 [ %13, %12 ], [ %25, %24 ], [ %26, %.loopexit.loopexit ], [ %8, %7 ], [ %20, %._crit_edge ]
  ret i32 %common.ret.op

12:                                               ; preds = %7
  %13 = tail call fastcc i32 @stratumTableIndex(ptr noundef nonnull %10)
  store i32 %13, ptr @defaultStratumIndex, align 4
  br label %common.ret

14:                                               ; preds = %.lr.ph, %19
  %indvars.iv = phi i64 [ 0, %.lr.ph ], [ %indvars.iv.next, %19 ]
  %15 = getelementptr inbounds %struct.StratumTableRecord, ptr %6, i64 %indvars.iv
  %16 = load ptr, ptr %15, align 8
  %17 = tail call i32 @strcmp(ptr noundef nonnull dereferenceable(1) %16, ptr noundef nonnull dereferenceable(1) %0) #10
  %18 = icmp eq i32 %17, 0
  br i1 %18, label %.loopexit.loopexit, label %19

19:                                               ; preds = %14
  %indvars.iv.next = add nuw nsw i64 %indvars.iv, 1
  %exitcond.not = icmp eq i64 %indvars.iv.next, %wide.trip.count
  br i1 %exitcond.not, label %._crit_edge, label %14, !llvm.loop !15

._crit_edge:                                      ; preds = %19, %.preheader
  %20 = load i32, ptr @defaultStratumIndex, align 4
  %21 = icmp eq i32 %20, -1
  %22 = load ptr, ptr @defaultStratumId, align 8
  %23 = icmp ne ptr %22, null
  %or.cond.i8 = select i1 %21, i1 %23, i1 false
  br i1 %or.cond.i8, label %24, label %common.ret

24:                                               ; preds = %._crit_edge
  %25 = tail call fastcc i32 @stratumTableIndex(ptr noundef nonnull %22)
  store i32 %25, ptr @defaultStratumIndex, align 4
  br label %common.ret

.loopexit.loopexit:                               ; preds = %14
  %26 = trunc nuw nsw i64 %indvars.iv to i32
  br label %common.ret
}